target datalayout = "e-m:e-p270:32:32-p271:32:32-p272:64:64-i64:64-i128:128-f80:128-n8:16:32:64-S128"
target triple = "x86_64-pc-linux-gnu"

%struct.AVBSFContext = type { ptr, ptr, ptr, ptr, ptr, %struct.AVRational, %struct.AVRational }
%struct.AVRational = type { i32, i32 }
%struct.AVCodecParameters = type { i32, i32, i32, ptr, i32, ptr, i32, i32, i64, i32, i32, i32, i32, i32, i32, %struct.AVRational, %struct.AVRational, i32, i32, i32, i32, i32, i32, i32, %struct.AVChannelLayout, i32, i32, i32, i32, i32, i32 }
%struct.AVChannelLayout = type { i32, i32, %union.anon, ptr }
%union.anon = type { i64 }

@.str.1 = private unnamed_addr constant [60 x i8] c"Updating DivX userdata (remove trailing 'p') in extradata.\0A\00", align 1

; Function Attrs: nounwind uwtable
define internal void @scan_buffer(ptr noundef %0, i32 noundef %1, ptr noundef %2, ptr noundef %3, ptr noundef %4) #0 {
  %6 = alloca ptr, align 8
  %7 = alloca i32, align 4
  %8 = alloca ptr, align 8
  %9 = alloca ptr, align 8
  %10 = alloca ptr, align 8
  %11 = alloca i32, align 4
  %12 = alloca ptr, align 8
  %13 = alloca ptr, align 8
  %14 = alloca i32, align 4
  %15 = alloca i32, align 4
  store ptr %0, ptr %6, align 8, !tbaa !43
  store i32 %1, ptr %7, align 4, !tbaa !22
  store ptr %2, ptr %8, align 8, !tbaa !44
  store ptr %3, ptr %9, align 8, !tbaa !44
  store ptr %4, ptr %10, align 8, !tbaa !44
  call void @llvm.lifetime.start.p0(i64 4, ptr %11) #3
  call void @llvm.lifetime.start.p0(i64 8, ptr %12) #3
  %16 = load ptr, ptr %6, align 8, !tbaa !43
  %17 = load i32, ptr %7, align 4, !tbaa !22
  %18 = sext i32 %17 to i64
  %19 = getelementptr inbounds i8, ptr %16, i64 %18
  store ptr %19, ptr %12, align 8, !tbaa !43
  call void @llvm.lifetime.start.p0(i64 8, ptr %13) #3
  %20 = load ptr, ptr %6, align 8, !tbaa !43
  store ptr %20, ptr %13, align 8, !tbaa !43
  br label %21

21:                                               ; preds = %110, %5
  %22 = load ptr, ptr %13, align 8, !tbaa !43
  %23 = load ptr, ptr %12, align 8, !tbaa !43
  %24 = icmp ult ptr %22, %23
  br i1 %24, label %25, label %111

25:                                               ; preds = %21
  store i32 -1, ptr %11, align 4, !tbaa !22
  %26 = load ptr, ptr %13, align 8, !tbaa !43
  %27 = load ptr, ptr %12, align 8, !tbaa !43
  %28 = call ptr @avpriv_find_start_code(ptr noundef %26, ptr noundef %27, ptr noundef %11)
  store ptr %28, ptr %13, align 8, !tbaa !43
  %29 = load i32, ptr %11, align 4, !tbaa !22
  %30 = icmp eq i32 %29, 434
  br i1 %30, label %31, label %83

31:                                               ; preds = %25
  %32 = load ptr, ptr %8, align 8, !tbaa !44
  %33 = icmp ne ptr %32, null
  br i1 %33, label %34, label %83

34:                                               ; preds = %31
  call void @llvm.lifetime.start.p0(i64 4, ptr %14) #3
  store i32 0, ptr %14, align 4, !tbaa !22
  br label %35

35:                                               ; preds = %78, %34
  %36 = load i32, ptr %14, align 4, !tbaa !22
  %37 = icmp slt i32 %36, 255
  br i1 %37, label %38, label %46

38:                                               ; preds = %35
  %39 = load ptr, ptr %13, align 8, !tbaa !43
  %40 = load i32, ptr %14, align 4, !tbaa !22
  %41 = sext i32 %40 to i64
  %42 = getelementptr inbounds i8, ptr %39, i64 %41
  %43 = getelementptr inbounds i8, ptr %42, i64 1
  %44 = load ptr, ptr %12, align 8, !tbaa !43
  %45 = icmp ult ptr %43, %44
  br label %46

46:                                               ; preds = %38, %35
  %47 = phi i1 [ false, %35 ], [ %45, %38 ]
  br i1 %47, label %49, label %48

48:                                               ; preds = %46
  store i32 4, ptr %15, align 4
  br label %81

49:                                               ; preds = %46
  %50 = load ptr, ptr %13, align 8, !tbaa !43
  %51 = load i32, ptr %14, align 4, !tbaa !22
  %52 = sext i32 %51 to i64
  %53 = getelementptr inbounds i8, ptr %50, i64 %52
  %54 = load i8, ptr %53, align 1, !tbaa !25
  %55 = zext i8 %54 to i32
  %56 = icmp eq i32 %55, 112
  br i1 %56, label %57, label %77

57:                                               ; preds = %49
  %58 = load ptr, ptr %13, align 8, !tbaa !43
  %59 = load i32, ptr %14, align 4, !tbaa !22
  %60 = add nsw i32 %59, 1
  %61 = sext i32 %60 to i64
  %62 = getelementptr inbounds i8, ptr %58, i64 %61
  %63 = load i8, ptr %62, align 1, !tbaa !25
  %64 = zext i8 %63 to i32
  %65 = icmp eq i32 %64, 0
  br i1 %65, label %66, label %77

66:                                               ; preds = %57
  %67 = load ptr, ptr %13, align 8, !tbaa !43
  %68 = load i32, ptr %14, align 4, !tbaa !22
  %69 = sext i32 %68 to i64
  %70 = getelementptr inbounds i8, ptr %67, i64 %69
  %71 = load ptr, ptr %6, align 8, !tbaa !43
  %72 = ptrtoint ptr %70 to i64
  %73 = ptrtoint ptr %71 to i64
  %74 = sub i64 %72, %73
  %75 = trunc i64 %74 to i32
  %76 = load ptr, ptr %8, align 8, !tbaa !44
  store i32 %75, ptr %76, align 4, !tbaa !22
  store i32 4, ptr %15, align 4
  br label %81

77:                                               ; preds = %57, %49
  br label %78

78:                                               ; preds = %77
  %79 = load i32, ptr %14, align 4, !tbaa !22
  %80 = add nsw i32 %79, 1
  store i32 %80, ptr %14, align 4, !tbaa !22
  br label %35, !llvm.loop !46

81:                                               ; preds = %66, %48
  call void @llvm.lifetime.end.p0(i64 4, ptr %14) #3
  br label %82

82:                                               ; preds = %81
  br label %110

83:                                               ; preds = %31, %25
  %84 = load i32, ptr %11, align 4, !tbaa !22
  %85 = icmp eq i32 %84, 438
  br i1 %85, label %86, label %109

86:                                               ; preds = %83
  %87 = load ptr, ptr %9, align 8, !tbaa !44
  %88 = icmp ne ptr %87, null
  br i1 %88, label %89, label %109

89:                                               ; preds = %86
  %90 = load ptr, ptr %9, align 8, !tbaa !44
  %91 = load i32, ptr %90, align 4, !tbaa !22
  %92 = add nsw i32 %91, 1
  store i32 %92, ptr %90, align 4, !tbaa !22
  %93 = load ptr, ptr %9, align 8, !tbaa !44
  %94 = load i32, ptr %93, align 4, !tbaa !22
  %95 = icmp eq i32 %94, 2
  br i1 %95, label %96, label %108

96:                                               ; preds = %89
  %97 = load ptr, ptr %10, align 8, !tbaa !44
  %98 = icmp ne ptr %97, null
  br i1 %98, label %99, label %108

99:                                               ; preds = %96
  %100 = load ptr, ptr %13, align 8, !tbaa !43
  %101 = load ptr, ptr %6, align 8, !tbaa !43
  %102 = ptrtoint ptr %100 to i64
  %103 = ptrtoint ptr %101 to i64
  %104 = sub i64 %102, %103
  %105 = sub nsw i64 %104, 4
  %106 = trunc i64 %105 to i32
  %107 = load ptr, ptr %10, align 8, !tbaa !44
  store i32 %106, ptr %107, align 4, !tbaa !22
  br label %108

108:                                              ; preds = %99, %96, %89
  br label %109

109:                                              ; preds = %108, %86, %83
  br label %110

110:                                              ; preds = %109, %82
  br label %21, !llvm.loop !48

111:                                              ; preds = %21
  call void @llvm.lifetime.end.p0(i64 8, ptr %13) #3
  call void @llvm.lifetime.end.p0(i64 8, ptr %12) #3
  call void @llvm.lifetime.end.p0(i64 4, ptr %11) #3
  ret void
}

; Function Attrs: nounwind uwtable
define internal i32 @mpeg4_unpack_bframes_init(ptr noundef %0) #0 {
  %2 = alloca ptr, align 8
  %3 = alloca i32, align 4
  store ptr %0, ptr %2, align 8, !tbaa !4
  %4 = load ptr, ptr %2, align 8, !tbaa !4
  %5 = getelementptr inbounds nuw %struct.AVBSFContext, ptr %4, i32 0, i32 3
  %6 = load ptr, ptr %5, align 8, !tbaa !9
  %7 = getelementptr inbounds nuw %struct.AVCodecParameters, ptr %6, i32 0, i32 3
  %8 = load ptr, ptr %7, align 8, !tbaa !16
  %9 = icmp ne ptr %8, null
  br i1 %9, label %10, label %34

10:                                               ; preds = %1
  call void @llvm.lifetime.start.p0(i64 4, ptr %3) #3
  store i32 -1, ptr %3, align 4, !tbaa !22
  %11 = load ptr, ptr %2, align 8, !tbaa !4
  %12 = getelementptr inbounds nuw %struct.AVBSFContext, ptr %11, i32 0, i32 3
  %13 = load ptr, ptr %12, align 8, !tbaa !9
  %14 = getelementptr inbounds nuw %struct.AVCodecParameters, ptr %13, i32 0, i32 3
  %15 = load ptr, ptr %14, align 8, !tbaa !16
  %16 = load ptr, ptr %2, align 8, !tbaa !4
  %17 = getelementptr inbounds nuw %struct.AVBSFContext, ptr %16, i32 0, i32 3
  %18 = load ptr, ptr %17, align 8, !tbaa !9
  %19 = getelementptr inbounds nuw %struct.AVCodecParameters, ptr %18, i32 0, i32 4
  %20 = load i32, ptr %19, align 8, !tbaa !23
  call void @scan_buffer(ptr noundef %15, i32 noundef %20, ptr noundef %3, ptr noundef null, ptr noundef null)
  %21 = load i32, ptr %3, align 4, !tbaa !22
  %22 = icmp sge i32 %21, 0
  br i1 %22, label %23, label %33

23:                                               ; preds = %10
  %24 = load ptr, ptr %2, align 8, !tbaa !4
  call void (ptr, i32, ptr, ...) @av_log(ptr noundef %24, i32 noundef 48, ptr noundef @.str.1)
  %25 = load ptr, ptr %2, align 8, !tbaa !4
  %26 = getelementptr inbounds nuw %struct.AVBSFContext, ptr %25, i32 0, i32 4
  %27 = load ptr, ptr %26, align 8, !tbaa !24
  %28 = getelementptr inbounds nuw %struct.AVCodecParameters, ptr %27, i32 0, i32 3
  %29 = load ptr, ptr %28, align 8, !tbaa !16
  %30 = load i32, ptr %3, align 4, !tbaa !22
  %31 = sext i32 %30 to i64
  %32 = getelementptr inbounds i8, ptr %29, i64 %31
  store i8 0, ptr %32, align 1, !tbaa !25
  br label %33

33:                                               ; preds = %23, %10
  call void @llvm.lifetime.end.p0(i64 4, ptr %3) #3
  br label %34

34:                                               ; preds = %33, %1
  ret i32 0
}