; Function Attrs: nounwind uwtable
define internal noundef i32 @mpeg4_unpack_bframes_init(ptr noundef %0) #0 {
  %2 = alloca i32, align 4
  %3 = getelementptr inbounds nuw i8, ptr %0, i64 24
  %4 = load ptr, ptr %3, align 8, !tbaa !4
  %5 = getelementptr inbounds nuw i8, ptr %4, i64 16
  %6 = load ptr, ptr %5, align 8, !tbaa !14
  %.not = icmp eq ptr %6, null
  br i1 %.not, label %44, label %7

7:                                                ; preds = %1
  %8 = getelementptr inbounds nuw i8, ptr %4, i64 24
  %9 = load i32, ptr %8, align 8, !tbaa !20
  call void @llvm.lifetime.start.p0(i64 4, ptr nonnull %2) #3
  %10 = sext i32 %9 to i64
  %11 = getelementptr inbounds i8, ptr %6, i64 %10
  %12 = icmp sgt i32 %9, 0
  br i1 %12, label %.lr.ph40.i, label %scan_buffer.exit.thread

scan_buffer.exit.thread:                          ; preds = %7
  call void @llvm.lifetime.end.p0(i64 4, ptr nonnull %2) #3
  br label %44

.lr.ph40.i:                                       ; preds = %7
  %13 = ptrtoint ptr %6 to i64
  br label %.lr.ph40.split.us.i

.lr.ph40.split.us.i:                              ; preds = %.loopexit.us.i, %.lr.ph40.i
  %.0 = phi i32 [ -1, %.lr.ph40.i ], [ %.1, %.loopexit.us.i ]
  %.03239.us.i = phi ptr [ %6, %.lr.ph40.i ], [ %14, %.loopexit.us.i ]
  store i32 -1, ptr %2, align 4, !tbaa !21
  %14 = call ptr @avpriv_find_start_code(ptr noundef %.03239.us.i, ptr noundef nonnull %11, ptr noundef nonnull %2) #3
  %15 = load i32, ptr %2, align 4, !tbaa !21
  %16 = icmp eq i32 %15, 434
  %17 = getelementptr inbounds nuw i8, ptr %14, i64 1
  %18 = icmp ult ptr %17, %11
  %or.cond.i = select i1 %16, i1 %18, i1 false
  br i1 %or.cond.i, label %.lr.ph.us.i, label %.loopexit.us.i

.lr.ph.us.i:                                      ; preds = %.lr.ph40.split.us.i, %26
  %indvars.iv61.i = phi i64 [ %indvars.iv.next62.i, %26 ], [ 0, %.lr.ph40.split.us.i ]
  %19 = getelementptr inbounds nuw i8, ptr %14, i64 %indvars.iv61.i
  %20 = load i8, ptr %19, align 1, !tbaa !22
  %21 = icmp eq i8 %20, 112
  br i1 %21, label %22, label %26

22:                                               ; preds = %.lr.ph.us.i
  %23 = getelementptr inbounds nuw i8, ptr %17, i64 %indvars.iv61.i
  %24 = load i8, ptr %23, align 1, !tbaa !22
  %25 = icmp eq i8 %24, 0
  br i1 %25, label %30, label %26

26:                                               ; preds = %22, %.lr.ph.us.i
  %indvars.iv.next62.i = add nuw nsw i64 %indvars.iv61.i, 1
  %27 = icmp samesign ult i64 %indvars.iv61.i, 254
  %gep74.i = getelementptr inbounds nuw i8, ptr %17, i64 %indvars.iv.next62.i
  %28 = icmp ult ptr %gep74.i, %11
  %29 = select i1 %27, i1 %28, i1 false
  br i1 %29, label %.lr.ph.us.i, label %.loopexit.us.i, !llvm.loop !23

30:                                               ; preds = %22
  %31 = getelementptr inbounds nuw i8, ptr %14, i64 %indvars.iv61.i
  %32 = ptrtoint ptr %31 to i64
  %33 = sub i64 %32, %13
  %34 = trunc i64 %33 to i32
  br label %.loopexit.us.i

.loopexit.us.i:                                   ; preds = %26, %30, %.lr.ph40.split.us.i
  %.1 = phi i32 [ %34, %30 ], [ %.0, %.lr.ph40.split.us.i ], [ %.0, %26 ]
  %35 = icmp ult ptr %14, %11
  br i1 %35, label %.lr.ph40.split.us.i, label %scan_buffer.exit, !llvm.loop !25

scan_buffer.exit:                                 ; preds = %.loopexit.us.i
  call void @llvm.lifetime.end.p0(i64 4, ptr nonnull %2) #3
  %36 = icmp sgt i32 %.1, -1
  br i1 %36, label %37, label %44

37:                                               ; preds = %scan_buffer.exit
  call void (ptr, i32, ptr, ...) @av_log(ptr noundef %0, i32 noundef 48, ptr noundef nonnull @.str.1) #3
  %38 = getelementptr inbounds nuw i8, ptr %0, i64 32
  %39 = load ptr, ptr %38, align 8, !tbaa !26
  %40 = getelementptr inbounds nuw i8, ptr %39, i64 16
  %41 = load ptr, ptr %40, align 8, !tbaa !14
  %42 = zext nneg i32 %.1 to i64
  %43 = getelementptr inbounds nuw i8, ptr %41, i64 %42
  store i8 0, ptr %43, align 1, !tbaa !22
  br label %44

44:                                               ; preds = %scan_buffer.exit, %37, %scan_buffer.exit.thread, %1
  ret i32 0
}